target datalayout = "e-m:e-p270:32:32-p271:32:32-p272:64:64-i64:64-i128:128-f80:128-n8:16:32:64-S128"
target triple = "x86_64-pc-linux-gnu"

@hf_Tango_AttributeValue_quality = internal global i32 0, align 4
@hf_Tango_AttributeValue_name = internal global i32 0, align 4
@hf_Tango_AttributeValue_dim_x = internal global i32 0, align 4
@hf_Tango_AttributeValue_dim_y = internal global i32 0, align 4
@hf_Tango_TimeVal_tv_sec = internal global i32 0, align 4
@hf_Tango_TimeVal_tv_usec = internal global i32 0, align 4
@hf_Tango_TimeVal_tv_nsec = internal global i32 0, align 4
@ett_giop_struct = internal global i32 0, align 4
@boundary = internal global i32 12, align 4
@.str.773 = private unnamed_addr constant [21 x i8] c"struct Tango_TimeVal\00", align 1

; Function Attrs: null_pointer_is_valid sspstrong uwtable
define internal void @decode_Tango_TimeVal_st(ptr noundef %0, ptr noundef %1, ptr noundef %2, ptr noundef %3, ptr noundef %4, ptr noundef %5, ptr noundef %6, i1 noundef zeroext %7) #0 {
  %9 = alloca ptr, align 8
  %10 = alloca ptr, align 8
  %11 = alloca ptr, align 8
  %12 = alloca ptr, align 8
  %13 = alloca ptr, align 8
  %14 = alloca ptr, align 8
  %15 = alloca ptr, align 8
  %16 = alloca i8, align 1
  store ptr %0, ptr %9, align 8
  store ptr %1, ptr %10, align 8
  store ptr %2, ptr %11, align 8
  store ptr %3, ptr %12, align 8
  store ptr %4, ptr %13, align 8
  store ptr %5, ptr %14, align 8
  store ptr %6, ptr %15, align 8
  %17 = zext i1 %7 to i8
  store i8 %17, ptr %16, align 1
  %18 = load ptr, ptr %11, align 8
  %19 = load i32, ptr @hf_Tango_TimeVal_tv_sec, align 4
  %20 = load ptr, ptr %9, align 8
  %21 = load ptr, ptr %13, align 8
  %22 = load i32, ptr %21, align 4
  %23 = sub i32 %22, 4
  %24 = load ptr, ptr %9, align 8
  %25 = load ptr, ptr %13, align 8
  %26 = load i8, ptr %16, align 1, !range !6, !noundef !7
  %27 = trunc i8 %26 to i1
  %28 = load i32, ptr @boundary, align 4
  %29 = call i32 @get_CDR_long(ptr noundef %24, ptr noundef %25, i1 noundef zeroext %27, i32 noundef %28)
  %30 = call ptr @proto_tree_add_int(ptr noundef %18, i32 noundef %19, ptr noundef %20, i32 noundef %23, i32 noundef 4, i32 noundef %29)
  %31 = load ptr, ptr %11, align 8
  %32 = load i32, ptr @hf_Tango_TimeVal_tv_usec, align 4
  %33 = load ptr, ptr %9, align 8
  %34 = load ptr, ptr %13, align 8
  %35 = load i32, ptr %34, align 4
  %36 = sub i32 %35, 4
  %37 = load ptr, ptr %9, align 8
  %38 = load ptr, ptr %13, align 8
  %39 = load i8, ptr %16, align 1, !range !6, !noundef !7
  %40 = trunc i8 %39 to i1
  %41 = load i32, ptr @boundary, align 4
  %42 = call i32 @get_CDR_long(ptr noundef %37, ptr noundef %38, i1 noundef zeroext %40, i32 noundef %41)
  %43 = call ptr @proto_tree_add_int(ptr noundef %31, i32 noundef %32, ptr noundef %33, i32 noundef %36, i32 noundef 4, i32 noundef %42)
  %44 = load ptr, ptr %11, align 8
  %45 = load i32, ptr @hf_Tango_TimeVal_tv_nsec, align 4
  %46 = load ptr, ptr %9, align 8
  %47 = load ptr, ptr %13, align 8
  %48 = load i32, ptr %47, align 4
  %49 = sub i32 %48, 4
  %50 = load ptr, ptr %9, align 8
  %51 = load ptr, ptr %13, align 8
  %52 = load i8, ptr %16, align 1, !range !6, !noundef !7
  %53 = trunc i8 %52 to i1
  %54 = load i32, ptr @boundary, align 4
  %55 = call i32 @get_CDR_long(ptr noundef %50, ptr noundef %51, i1 noundef zeroext %53, i32 noundef %54)
  %56 = call ptr @proto_tree_add_int(ptr noundef %44, i32 noundef %45, ptr noundef %46, i32 noundef %49, i32 noundef 4, i32 noundef %55)
  ret void
}

; Function Attrs: null_pointer_is_valid sspstrong uwtable
define internal void @decode_Tango_AttributeValue_st(ptr noundef %0, ptr noundef %1, ptr noundef %2, ptr noundef %3, ptr noundef %4, ptr noundef %5, ptr noundef %6, i1 noundef zeroext %7) #0 {
  %9 = alloca ptr, align 8
  %10 = alloca ptr, align 8
  %11 = alloca ptr, align 8
  %12 = alloca ptr, align 8
  %13 = alloca ptr, align 8
  %14 = alloca ptr, align 8
  %15 = alloca ptr, align 8
  %16 = alloca i8, align 1
  %17 = alloca i32, align 4
  %18 = alloca ptr, align 8
  store ptr %0, ptr %9, align 8
  store ptr %1, ptr %10, align 8
  store ptr %2, ptr %11, align 8
  store ptr %3, ptr %12, align 8
  store ptr %4, ptr %13, align 8
  store ptr %5, ptr %14, align 8
  store ptr %6, ptr %15, align 8
  %19 = zext i1 %7 to i8
  store i8 %19, ptr %16, align 1
  call void @llvm.lifetime.start.p0(i64 4, ptr %17) #6
  %20 = load ptr, ptr %9, align 8
  %21 = load ptr, ptr %10, align 8
  %22 = load ptr, ptr %11, align 8
  %23 = load ptr, ptr %12, align 8
  %24 = load ptr, ptr %13, align 8
  %25 = load i8, ptr %16, align 1, !range !6, !noundef !7
  %26 = trunc i8 %25 to i1
  %27 = load i32, ptr @boundary, align 4
  %28 = load ptr, ptr %14, align 8
  call void @get_CDR_any(ptr noundef %20, ptr noundef %21, ptr noundef %22, ptr noundef %23, ptr noundef %24, i1 noundef zeroext %26, i32 noundef %27, ptr noundef %28)
  %29 = load ptr, ptr %9, align 8
  %30 = load ptr, ptr %13, align 8
  %31 = load i8, ptr %16, align 1, !range !6, !noundef !7
  %32 = trunc i8 %31 to i1
  %33 = load i32, ptr @boundary, align 4
  %34 = call i32 @get_CDR_enum(ptr noundef %29, ptr noundef %30, i1 noundef zeroext %32, i32 noundef %33)
  store i32 %34, ptr %17, align 4
  %35 = load ptr, ptr %11, align 8
  %36 = load i32, ptr @hf_Tango_AttributeValue_quality, align 4
  %37 = load ptr, ptr %9, align 8
  %38 = load ptr, ptr %13, align 8
  %39 = load i32, ptr %38, align 4
  %40 = sub i32 %39, 4
  %41 = load i32, ptr %17, align 4
  %42 = call ptr @proto_tree_add_uint(ptr noundef %35, i32 noundef %36, ptr noundef %37, i32 noundef %40, i32 noundef 4, i32 noundef %41)
  call void @llvm.lifetime.start.p0(i64 8, ptr %18) #6
  %43 = load ptr, ptr %11, align 8
  %44 = load ptr, ptr %9, align 8
  %45 = load ptr, ptr %13, align 8
  %46 = load i32, ptr %45, align 4
  %47 = load i32, ptr @ett_giop_struct, align 4
  %48 = call ptr @proto_tree_add_subtree(ptr noundef %43, ptr noundef %44, i32 noundef %46, i32 noundef -1, i32 noundef %47, ptr noundef null, ptr noundef @.str.773)
  store ptr %48, ptr %18, align 8
  %49 = load ptr, ptr %9, align 8
  %50 = load ptr, ptr %10, align 8
  %51 = load ptr, ptr %18, align 8
  %52 = load ptr, ptr %12, align 8
  %53 = load ptr, ptr %13, align 8
  %54 = load ptr, ptr %14, align 8
  %55 = load ptr, ptr %15, align 8
  %56 = load i8, ptr %16, align 1, !range !6, !noundef !7
  %57 = trunc i8 %56 to i1
  call void @decode_Tango_TimeVal_st(ptr noundef %49, ptr noundef %50, ptr noundef %51, ptr noundef %52, ptr noundef %53, ptr noundef %54, ptr noundef %55, i1 noundef zeroext %57)
  call void @llvm.lifetime.end.p0(i64 8, ptr %18) #6
  %58 = load ptr, ptr %11, align 8
  %59 = load ptr, ptr %9, align 8
  %60 = load ptr, ptr %13, align 8
  %61 = load i8, ptr %16, align 1, !range !6, !noundef !7
  %62 = trunc i8 %61 to i1
  %63 = load i32, ptr @boundary, align 4
  %64 = load i32, ptr @hf_Tango_AttributeValue_name, align 4
  call void @giop_add_CDR_string(ptr noundef %58, ptr noundef %59, ptr noundef %60, i1 noundef zeroext %62, i32 noundef %63, i32 noundef %64)
  %65 = load ptr, ptr %11, align 8
  %66 = load i32, ptr @hf_Tango_AttributeValue_dim_x, align 4
  %67 = load ptr, ptr %9, align 8
  %68 = load ptr, ptr %13, align 8
  %69 = load i32, ptr %68, align 4
  %70 = sub i32 %69, 4
  %71 = load ptr, ptr %9, align 8
  %72 = load ptr, ptr %13, align 8
  %73 = load i8, ptr %16, align 1, !range !6, !noundef !7
  %74 = trunc i8 %73 to i1
  %75 = load i32, ptr @boundary, align 4
  %76 = call i32 @get_CDR_long(ptr noundef %71, ptr noundef %72, i1 noundef zeroext %74, i32 noundef %75)
  %77 = call ptr @proto_tree_add_int(ptr noundef %65, i32 noundef %66, ptr noundef %67, i32 noundef %70, i32 noundef 4, i32 noundef %76)
  %78 = load ptr, ptr %11, align 8
  %79 = load i32, ptr @hf_Tango_AttributeValue_dim_y, align 4
  %80 = load ptr, ptr %9, align 8
  %81 = load ptr, ptr %13, align 8
  %82 = load i32, ptr %81, align 4
  %83 = sub i32 %82, 4
  %84 = load ptr, ptr %9, align 8
  %85 = load ptr, ptr %13, align 8
  %86 = load i8, ptr %16, align 1, !range !6, !noundef !7
  %87 = trunc i8 %86 to i1
  %88 = load i32, ptr @boundary, align 4
  %89 = call i32 @get_CDR_long(ptr noundef %84, ptr noundef %85, i1 noundef zeroext %87, i32 noundef %88)
  %90 = call ptr @proto_tree_add_int(ptr noundef %78, i32 noundef %79, ptr noundef %80, i32 noundef %83, i32 noundef 4, i32 noundef %89)
  call void @llvm.lifetime.end.p0(i64 4, ptr %17) #6
  ret void
}