; Function Attrs: null_pointer_is_valid sspstrong uwtable
define internal fastcc void @decode_Tango_AttributeValue_st(ptr noundef %0, ptr noundef %1, ptr noundef %2, ptr noundef %3, ptr noundef %4, ptr noundef %5, i1 noundef zeroext %6) unnamed_addr #0 {
  tail call void @get_CDR_any(ptr noundef %0, ptr noundef %1, ptr noundef %2, ptr noundef %3, ptr noundef %4, i1 noundef zeroext %6, i32 noundef 12, ptr noundef %5)
  %8 = tail call i32 @get_CDR_enum(ptr noundef %0, ptr noundef %4, i1 noundef zeroext %6, i32 noundef 12)
  %9 = load i32, ptr @hf_Tango_AttributeValue_quality, align 4
  %10 = load i32, ptr %4, align 4
  %11 = add i32 %10, -4
  %12 = tail call ptr @proto_tree_add_uint(ptr noundef %2, i32 noundef %9, ptr noundef %0, i32 noundef %11, i32 noundef 4, i32 noundef %8)
  %13 = load i32, ptr %4, align 4
  %14 = load i32, ptr @ett_giop_struct, align 4
  %15 = tail call ptr @proto_tree_add_subtree(ptr noundef %2, ptr noundef %0, i32 noundef %13, i32 noundef -1, i32 noundef %14, ptr noundef null, ptr noundef nonnull @.str.773)
  %16 = load i32, ptr @hf_Tango_TimeVal_tv_sec, align 4
  %17 = load i32, ptr %4, align 4
  %18 = add i32 %17, -4
  %19 = tail call i32 @get_CDR_long(ptr noundef %0, ptr noundef %4, i1 noundef zeroext %6, i32 noundef 12)
  %20 = tail call ptr @proto_tree_add_int(ptr noundef %15, i32 noundef %16, ptr noundef %0, i32 noundef %18, i32 noundef 4, i32 noundef %19)
  %21 = load i32, ptr @hf_Tango_TimeVal_tv_usec, align 4
  %22 = load i32, ptr %4, align 4
  %23 = add i32 %22, -4
  %24 = tail call i32 @get_CDR_long(ptr noundef %0, ptr noundef %4, i1 noundef zeroext %6, i32 noundef 12)
  %25 = tail call ptr @proto_tree_add_int(ptr noundef %15, i32 noundef %21, ptr noundef %0, i32 noundef %23, i32 noundef 4, i32 noundef %24)
  %26 = load i32, ptr @hf_Tango_TimeVal_tv_nsec, align 4
  %27 = load i32, ptr %4, align 4
  %28 = add i32 %27, -4
  %29 = tail call i32 @get_CDR_long(ptr noundef %0, ptr noundef %4, i1 noundef zeroext %6, i32 noundef 12)
  %30 = tail call ptr @proto_tree_add_int(ptr noundef %15, i32 noundef %26, ptr noundef %0, i32 noundef %28, i32 noundef 4, i32 noundef %29)
  %31 = load i32, ptr @hf_Tango_AttributeValue_name, align 4
  tail call void @giop_add_CDR_string(ptr noundef %2, ptr noundef %0, ptr noundef %4, i1 noundef zeroext %6, i32 noundef 12, i32 noundef %31)
  %32 = load i32, ptr @hf_Tango_AttributeValue_dim_x, align 4
  %33 = load i32, ptr %4, align 4
  %34 = add i32 %33, -4
  %35 = tail call i32 @get_CDR_long(ptr noundef %0, ptr noundef %4, i1 noundef zeroext %6, i32 noundef 12)
  %36 = tail call ptr @proto_tree_add_int(ptr noundef %2, i32 noundef %32, ptr noundef %0, i32 noundef %34, i32 noundef 4, i32 noundef %35)
  %37 = load i32, ptr @hf_Tango_AttributeValue_dim_y, align 4
  %38 = load i32, ptr %4, align 4
  %39 = add i32 %38, -4
  %40 = tail call i32 @get_CDR_long(ptr noundef %0, ptr noundef %4, i1 noundef zeroext %6, i32 noundef 12)
  %41 = tail call ptr @proto_tree_add_int(ptr noundef %2, i32 noundef %37, ptr noundef %0, i32 noundef %39, i32 noundef 4, i32 noundef %40)
  ret void
}